target datalayout = "e-m:e-p270:32:32-p271:32:32-p272:64:64-i64:64-i128:128-f80:128-n8:16:32:64-S128"
target triple = "x86_64-pc-linux-gnu"

%struct.rb_data_type_struct = type { ptr, %struct.anon.12, ptr, ptr, i64 }
%struct.anon.12 = type { ptr, ptr, ptr, ptr, [1 x ptr] }
%struct.proc_entry = type { i64, i64, ptr }
%struct.MEMO = type { i64, i64, i64, i64, %union.anon.17 }
%union.anon.17 = type { i64 }

@proc_entry_data_type = internal constant %struct.rb_data_type_struct { ptr @.str.107, %struct.anon.12 { ptr @proc_entry_mark, ptr inttoptr (i64 -1 to ptr), ptr null, ptr @proc_entry_compact, [1 x ptr] zeroinitializer }, ptr null, ptr null, i64 35 }, align 8

; Function Attrs: nounwind sspstrong uwtable
define internal ptr @proc_entry_ptr(i64 noundef %0) #0 {
  %2 = alloca i64, align 8
  %3 = alloca ptr, align 8
  store i64 %0, ptr %2, align 8, !tbaa !7
  call void @llvm.lifetime.start.p0(i64 8, ptr %3) #23
  %4 = load i64, ptr %2, align 8, !tbaa !7
  %5 = call ptr @rb_check_typeddata(i64 noundef %4, ptr noundef @proc_entry_data_type)
  store ptr %5, ptr %3, align 8, !tbaa !43
  %6 = load ptr, ptr %3, align 8, !tbaa !43
  call void @llvm.lifetime.end.p0(i64 8, ptr %3) #23
  ret ptr %6
}

; Function Attrs: inlinehint nounwind sspstrong willreturn memory(none) uwtable
define internal zeroext i1 @RB_TEST(i64 noundef %0) #2 {
  %2 = alloca i64, align 8
  store i64 %0, ptr %2, align 8, !tbaa !7
  %3 = load i64, ptr %2, align 8, !tbaa !7
  %4 = and i64 %3, -5
  %5 = icmp ne i64 %4, 0
  ret i1 %5
}

; Function Attrs: nounwind sspstrong uwtable
define internal i64 @lazyenum_yield(i64 noundef %0, ptr noundef %1) #0 {
  %3 = alloca i64, align 8
  %4 = alloca ptr, align 8
  %5 = alloca ptr, align 8
  store i64 %0, ptr %3, align 8, !tbaa !7
  store ptr %1, ptr %4, align 8, !tbaa !101
  call void @llvm.lifetime.start.p0(i64 8, ptr %5) #23
  %6 = load i64, ptr %3, align 8, !tbaa !7
  %7 = call ptr @proc_entry_ptr(i64 noundef %6)
  store ptr %7, ptr %5, align 8, !tbaa !43
  %8 = load ptr, ptr %5, align 8, !tbaa !43
  %9 = getelementptr inbounds nuw %struct.proc_entry, ptr %8, i32 0, i32 0
  %10 = load i64, ptr %9, align 8, !tbaa !99
  %11 = load ptr, ptr %4, align 8, !tbaa !101
  %12 = getelementptr inbounds nuw %struct.MEMO, ptr %11, i32 0, i32 3
  %13 = call i64 @rb_proc_call_with_block(i64 noundef %10, i32 noundef 1, ptr noundef %12, i64 noundef 4)
  call void @llvm.lifetime.end.p0(i64 8, ptr %5) #23
  ret i64 %13
}

; Function Attrs: nounwind sspstrong uwtable
define internal ptr @lazy_select_proc(i64 noundef %0, ptr noundef %1, i64 noundef %2, i64 noundef %3) #0 {
  %5 = alloca ptr, align 8
  %6 = alloca i64, align 8
  %7 = alloca ptr, align 8
  %8 = alloca i64, align 8
  %9 = alloca i64, align 8
  %10 = alloca i64, align 8
  %11 = alloca i32, align 4
  store i64 %0, ptr %6, align 8, !tbaa !7
  store ptr %1, ptr %7, align 8, !tbaa !101
  store i64 %2, ptr %8, align 8, !tbaa !7
  store i64 %3, ptr %9, align 8, !tbaa !7
  call void @llvm.lifetime.start.p0(i64 8, ptr %10) #23
  %12 = load i64, ptr %6, align 8, !tbaa !7
  %13 = load ptr, ptr %7, align 8, !tbaa !101
  %14 = call i64 @lazyenum_yield(i64 noundef %12, ptr noundef %13)
  store i64 %14, ptr %10, align 8, !tbaa !7
  %15 = load i64, ptr %10, align 8, !tbaa !7
  %16 = call zeroext i1 @RB_TEST(i64 noundef %15) #24
  br i1 %16, label %18, label %17

17:                                               ; preds = %4
  store ptr null, ptr %5, align 8
  store i32 1, ptr %11, align 4
  br label %20

18:                                               ; preds = %4
  %19 = load ptr, ptr %7, align 8, !tbaa !101
  store ptr %19, ptr %5, align 8
  store i32 1, ptr %11, align 4
  br label %20

20:                                               ; preds = %18, %17
  call void @llvm.lifetime.end.p0(i64 8, ptr %10) #23
  %21 = load ptr, ptr %5, align 8
  ret ptr %21
}