; Function Attrs: nounwind sspstrong uwtable
define internal ptr @lazy_select_proc(i64 noundef %0, ptr noundef %1, i64 %2, i64 %3) #0 {
  %5 = tail call ptr @rb_check_typeddata(i64 noundef %0, ptr noundef nonnull @proc_entry_data_type) #18
  %6 = load i64, ptr %5, align 8, !tbaa !93
  %7 = getelementptr inbounds nuw i8, ptr %1, i64 24
  %8 = tail call i64 @rb_proc_call_with_block(i64 noundef %6, i32 noundef 1, ptr noundef nonnull %7, i64 noundef 4) #18
  %9 = and i64 %8, -5
  %.not = icmp eq i64 %9, 0
  %. = select i1 %.not, ptr null, ptr %1
  ret ptr %.
}